; Function Attrs: nounwind uwtable
define hidden float @SDL_GetDisplayContentScale_REAL(i32 noundef %0) local_unnamed_addr #0 {
  %2 = load ptr, ptr @_this, align 8
  %.not.i.i = icmp eq ptr %2, null
  br i1 %.not.i.i, label %8, label %.preheader.i.i

.preheader.i.i:                                   ; preds = %1
  %3 = getelementptr inbounds nuw i8, ptr %2, i64 800
  %4 = load i32, ptr %3, align 8
  %5 = icmp sgt i32 %4, 0
  br i1 %5, label %.lr.ph.i.i, label %._crit_edge.i.i

.lr.ph.i.i:                                       ; preds = %.preheader.i.i
  %6 = getelementptr inbounds nuw i8, ptr %2, i64 808
  %7 = load ptr, ptr %6, align 8
  %wide.trip.count.i.i = zext nneg i32 %4 to i64
  br label %10

8:                                                ; preds = %1
  %9 = tail call zeroext i1 (ptr, ...) @SDL_SetError_REAL(ptr noundef nonnull @.str.1) #19
  br label %SDL_GetVideoDisplay.exit.thread

10:                                               ; preds = %15, %.lr.ph.i.i
  %indvars.iv.i.i = phi i64 [ 0, %.lr.ph.i.i ], [ %indvars.iv.next.i.i, %15 ]
  %11 = getelementptr inbounds nuw ptr, ptr %7, i64 %indvars.iv.i.i
  %12 = load ptr, ptr %11, align 8
  %13 = load i32, ptr %12, align 8
  %14 = icmp eq i32 %0, %13
  br i1 %14, label %SDL_GetVideoDisplay.exit, label %15

15:                                               ; preds = %10
  %indvars.iv.next.i.i = add nuw nsw i64 %indvars.iv.i.i, 1
  %exitcond.not.i.i = icmp eq i64 %indvars.iv.next.i.i, %wide.trip.count.i.i
  br i1 %exitcond.not.i.i, label %._crit_edge.i.i, label %10, !llvm.loop !14

._crit_edge.i.i:                                  ; preds = %15, %.preheader.i.i
  %16 = tail call zeroext i1 (ptr, ...) @SDL_SetError_REAL(ptr noundef nonnull @.str.11) #19
  br label %SDL_GetVideoDisplay.exit.thread

SDL_GetVideoDisplay.exit:                         ; preds = %10
  %17 = and i64 %indvars.iv.i.i, 4294967295
  %18 = getelementptr inbounds nuw ptr, ptr %7, i64 %17
  %19 = load ptr, ptr %18, align 8
  %.not = icmp eq ptr %19, null
  br i1 %.not, label %SDL_GetVideoDisplay.exit.thread, label %20

20:                                               ; preds = %SDL_GetVideoDisplay.exit
  %21 = getelementptr inbounds nuw i8, ptr %19, i64 88
  %22 = load float, ptr %21, align 8
  br label %SDL_GetVideoDisplay.exit.thread

SDL_GetVideoDisplay.exit.thread:                  ; preds = %8, %._crit_edge.i.i, %SDL_GetVideoDisplay.exit, %20
  %.0 = phi float [ %22, %20 ], [ 0.000000e+00, %SDL_GetVideoDisplay.exit ], [ 0.000000e+00, %._crit_edge.i.i ], [ 0.000000e+00, %8 ]
  ret float %.0
}